target datalayout = "e-m:e-p270:32:32-p271:32:32-p272:64:64-i64:64-i128:128-f80:128-n8:16:32:64-S128"
target triple = "x86_64-pc-linux-gnu"

@tcg_env = external global ptr, align 8

; Function Attrs: nounwind sspstrong uwtable
define internal void @expand_2s_i64(i32 noundef %0, i32 noundef %1, i32 noundef %2, ptr noundef %3, i1 noundef zeroext %4, ptr noundef %5) #0 {
  %7 = alloca i32, align 4
  %8 = alloca i32, align 4
  %9 = alloca i32, align 4
  %10 = alloca ptr, align 8
  %11 = alloca i8, align 1
  %12 = alloca ptr, align 8
  %13 = alloca ptr, align 8
  %14 = alloca ptr, align 8
  %15 = alloca i32, align 4
  store i32 %0, ptr %7, align 4
  store i32 %1, ptr %8, align 4
  store i32 %2, ptr %9, align 4
  store ptr %3, ptr %10, align 8
  %16 = zext i1 %4 to i8
  store i8 %16, ptr %11, align 1
  store ptr %5, ptr %12, align 8
  call void @llvm.lifetime.start.p0(i64 8, ptr %13) #10
  %17 = call ptr @tcg_temp_new_i64()
  store ptr %17, ptr %13, align 8
  call void @llvm.lifetime.start.p0(i64 8, ptr %14) #10
  %18 = call ptr @tcg_temp_new_i64()
  store ptr %18, ptr %14, align 8
  call void @llvm.lifetime.start.p0(i64 4, ptr %15) #10
  store i32 0, ptr %15, align 4, !annotation !4
  store i32 0, ptr %15, align 4
  br label %19

19:                                               ; preds = %49, %6
  %20 = load i32, ptr %15, align 4
  %21 = load i32, ptr %9, align 4
  %22 = icmp ult i32 %20, %21
  br i1 %22, label %23, label %52

23:                                               ; preds = %19
  %24 = load ptr, ptr %13, align 8
  %25 = load ptr, ptr @tcg_env, align 8
  %26 = load i32, ptr %8, align 4
  %27 = load i32, ptr %15, align 4
  %28 = add i32 %26, %27
  %29 = zext i32 %28 to i64
  call void @tcg_gen_ld_i64(ptr noundef %24, ptr noundef %25, i64 noundef %29)
  %30 = load i8, ptr %11, align 1, !range !5, !noundef !6
  %31 = trunc i8 %30 to i1
  br i1 %31, label %32, label %37

32:                                               ; preds = %23
  %33 = load ptr, ptr %12, align 8
  %34 = load ptr, ptr %14, align 8
  %35 = load ptr, ptr %10, align 8
  %36 = load ptr, ptr %13, align 8
  call void %33(ptr noundef %34, ptr noundef %35, ptr noundef %36)
  br label %42

37:                                               ; preds = %23
  %38 = load ptr, ptr %12, align 8
  %39 = load ptr, ptr %14, align 8
  %40 = load ptr, ptr %13, align 8
  %41 = load ptr, ptr %10, align 8
  call void %38(ptr noundef %39, ptr noundef %40, ptr noundef %41)
  br label %42

42:                                               ; preds = %37, %32
  %43 = load ptr, ptr %14, align 8
  %44 = load ptr, ptr @tcg_env, align 8
  %45 = load i32, ptr %7, align 4
  %46 = load i32, ptr %15, align 4
  %47 = add i32 %45, %46
  %48 = zext i32 %47 to i64
  call void @tcg_gen_st_i64(ptr noundef %43, ptr noundef %44, i64 noundef %48)
  br label %49

49:                                               ; preds = %42
  %50 = load i32, ptr %15, align 4
  %51 = add i32 %50, 8
  store i32 %51, ptr %15, align 4
  br label %19, !llvm.loop !15

52:                                               ; preds = %19
  %53 = load ptr, ptr %13, align 8
  call void @tcg_temp_free_i64(ptr noundef %53)
  %54 = load ptr, ptr %14, align 8
  call void @tcg_temp_free_i64(ptr noundef %54)
  call void @llvm.lifetime.end.p0(i64 4, ptr %15) #10
  call void @llvm.lifetime.end.p0(i64 8, ptr %14) #10
  call void @llvm.lifetime.end.p0(i64 8, ptr %13) #10
  ret void
}