; Function Attrs: nounwind sspstrong uwtable
define internal fastcc void @expand_2s_i64(i32 noundef %0, i32 noundef %1, i32 noundef %2, ptr noundef %3, i1 noundef zeroext %4, ptr noundef readonly captures(none) %5) unnamed_addr #2 {
  %7 = tail call ptr @tcg_temp_new_i64() #10
  %8 = tail call ptr @tcg_temp_new_i64() #10
  %.not = icmp eq i32 %2, 0
  br i1 %.not, label %._crit_edge, label %.lr.ph

.lr.ph:                                           ; preds = %6
  br i1 %4, label %.lr.ph.split.us, label %.lr.ph.split

.lr.ph.split.us:                                  ; preds = %.lr.ph, %.lr.ph.split.us
  %.019.us = phi i32 [ %15, %.lr.ph.split.us ], [ 0, %.lr.ph ]
  %9 = load ptr, ptr @tcg_env, align 8
  %10 = add i32 %.019.us, %1
  %11 = zext i32 %10 to i64
  tail call void @tcg_gen_ld_i64(ptr noundef %7, ptr noundef %9, i64 noundef %11) #10
  tail call void %5(ptr noundef %8, ptr noundef %3, ptr noundef %7) #10
  %12 = load ptr, ptr @tcg_env, align 8
  %13 = add i32 %.019.us, %0
  %14 = zext i32 %13 to i64
  tail call void @tcg_gen_st_i64(ptr noundef %8, ptr noundef %12, i64 noundef %14) #10
  %15 = add i32 %.019.us, 8
  %16 = icmp ult i32 %15, %2
  br i1 %16, label %.lr.ph.split.us, label %._crit_edge, !llvm.loop !14

.lr.ph.split:                                     ; preds = %.lr.ph, %.lr.ph.split
  %.019 = phi i32 [ %23, %.lr.ph.split ], [ 0, %.lr.ph ]
  %17 = load ptr, ptr @tcg_env, align 8
  %18 = add i32 %.019, %1
  %19 = zext i32 %18 to i64
  tail call void @tcg_gen_ld_i64(ptr noundef %7, ptr noundef %17, i64 noundef %19) #10
  tail call void %5(ptr noundef %8, ptr noundef %7, ptr noundef %3) #10
  %20 = load ptr, ptr @tcg_env, align 8
  %21 = add i32 %.019, %0
  %22 = zext i32 %21 to i64
  tail call void @tcg_gen_st_i64(ptr noundef %8, ptr noundef %20, i64 noundef %22) #10
  %23 = add i32 %.019, 8
  %24 = icmp ult i32 %23, %2
  br i1 %24, label %.lr.ph.split, label %._crit_edge, !llvm.loop !14

._crit_edge:                                      ; preds = %.lr.ph.split, %.lr.ph.split.us, %6
  tail call void @tcg_temp_free_i64(ptr noundef %7) #10
  tail call void @tcg_temp_free_i64(ptr noundef %8) #10
  ret void
}